(dp0
S'res_high_mag'
p1
(lp2
(lp3
F15643.0
aF15653.0
aF15632.0
aF15572.0
aF15566.0
aF15248.0
aF14531.0
aF12914.0
aF9402.0
aF5963.0
aF3454.0
aF1999.0
aa(lp4
F15645.0
aF15648.0
aF15631.0
aF15616.0
aF15562.0
aF15250.0
aF14542.0
aF12913.0
aF9354.0
aF5963.0
aF3454.0
aF1999.0
aa(lp5
F15637.0
aF15654.0
aF15644.0
aF15619.0
aF15593.0
aF15260.0
aF14585.0
aF12939.0
aF9393.0
aF5963.0
aF3451.0
aF2000.0
aa(lp6
F15644.0
aF15647.0
aF15628.0
aF15564.0
aF15559.0
aF15243.0
aF14549.0
aF12929.0
aF9391.0
aF5963.0
aF3451.0
aF1998.0
aa(lp7
F15646.0
aF15653.0
aF15632.0
aF15613.0
aF15596.0
aF15247.0
aF14559.0
aF12936.0
aF9390.0
aF5963.0
aF3451.0
aF1999.0
aa(lp8
F15646.0
aF15650.0
aF15632.0
aF15610.0
aF15606.0
aF15238.0
aF14562.0
aF12931.0
aF9402.0
aF5964.0
aF3451.0
aF1999.0
aa(lp9
F15644.0
aF15640.0
aF15627.0
aF15600.0
aF15580.0
aF15235.0
aF14548.0
aF12904.0
aF9394.0
aF5963.0
aF3452.0
aF1998.0
aa(lp10
F15574.0
aF15631.0
aF15601.0
aF15527.0
aF15552.0
aF15223.0
aF14516.0
aF12720.0
aF9356.0
aF5966.0
aF3456.0
aF1998.0
aa(lp11
F15773.0
aF15732.0
aF15640.0
aF15631.0
aF15609.0
aF15294.0
aF14619.0
aF12939.0
aF9408.0
aF5969.0
aF3460.0
aF1999.0
aa(lp12
F15608.0
aF15626.0
aF15580.0
aF15540.0
aF15516.0
aF15226.0
aF14488.0
aF12692.0
aF9331.0
aF5960.0
aF3458.0
aF2004.0
aa(lp13
F15500.0
aF15509.0
aF15472.0
aF15411.0
aF15325.0
aF14985.0
aF14386.0
aF12353.0
aF9283.0
aF5934.0
aF3451.0
aF1999.0
aa(lp14
F15354.0
aF15333.0
aF15318.0
aF15272.0
aF15257.0
aF14773.0
aF14104.0
aF12266.0
aF9266.0
aF5918.0
aF3417.0
aF1995.0
aa(lp15
F15509.0
aF15513.0
aF15497.0
aF15436.0
aF15415.0
aF15050.0
aF14332.0
aF12333.0
aF9288.0
aF5964.0
aF3461.0
aF2001.0
aa(lp16
F15190.0
aF15217.0
aF15144.0
aF14873.0
aF14881.0
aF14477.0
aF13934.0
aF11902.0
aF9104.0
aF5923.0
aF3439.0
aF1992.0
aa(lp17
F14543.0
aF14642.0
aF14545.0
aF14467.0
aF14449.0
aF14306.0
aF13553.0
aF11783.0
aF9098.0
aF5905.0
aF3419.0
aF1981.0
aasS'res_low_mag'
p18
(lp19
(lp20
F15158.0
aF15120.0
aF13848.0
aF11885.0
aF9095.0
aF6008.0
aF4018.0
aF2395.0
aF1391.0
aF669.0
aF360.0
aF190.0
aa(lp21
F14956.0
aF15097.0
aF13877.0
aF11867.0
aF9082.0
aF6015.0
aF4031.0
aF2391.0
aF1391.0
aF669.0
aF360.0
aF190.0
aa(lp22
F14965.0
aF15099.0
aF13851.0
aF11797.0
aF9008.0
aF5970.0
aF4007.0
aF2397.0
aF1391.0
aF668.0
aF360.0
aF190.0
aa(lp23
F14513.0
aF14840.0
aF13481.0
aF11735.0
aF9039.0
aF5932.0
aF4011.0
aF2398.0
aF1394.0
aF659.0
aF360.0
aF190.0
aa(lp24
F14403.0
aF14540.0
aF13418.0
aF11666.0
aF8901.0
aF5912.0
aF4006.0
aF2384.0
aF1388.0
aF658.0
aF360.0
aF191.0
aa(lp25
F13655.0
aF14256.0
aF13191.0
aF11571.0
aF8696.0
aF5846.0
aF3939.0
aF2359.0
aF1389.0
aF658.0
aF358.0
aF191.0
aa(lp26
F13141.0
aF13308.0
aF12205.0
aF11110.0
aF8390.0
aF5737.0
aF3884.0
aF2327.0
aF1366.0
aF657.0
aF358.0
aF191.0
aa(lp27
F11804.0
aF11783.0
aF11222.0
aF10406.0
aF7988.0
aF5692.0
aF3881.0
aF2312.0
aF1368.0
aF648.0
aF358.0
aF190.0
aa(lp28
F11111.0
aF11066.0
aF10383.0
aF9335.0
aF7331.0
aF5346.0
aF3863.0
aF2313.0
aF1358.0
aF646.0
aF358.0
aF190.0
aa(lp29
F8326.0
aF8210.0
aF8156.0
aF7779.0
aF6032.0
aF4820.0
aF3547.0
aF2159.0
aF1351.0
aF633.0
aF356.0
aF189.0
aa(lp30
F6117.0
aF6111.0
aF6117.0
aF5539.0
aF5034.0
aF4045.0
aF3134.0
aF2016.0
aF1239.0
aF627.0
aF352.0
aF188.0
aa(lp31
F4517.0
aF4461.0
aF4448.0
aF4328.0
aF3949.0
aF3144.0
aF2509.0
aF1816.0
aF1167.0
aF608.0
aF345.0
aF185.0
aa(lp32
F3790.0
aF3796.0
aF3778.0
aF3811.0
aF3470.0
aF2996.0
aF2081.0
aF1635.0
aF1066.0
aF613.0
aF333.0
aF184.0
aa(lp33
F2385.0
aF2344.0
aF2272.0
aF2272.0
aF2368.0
aF1839.0
aF1642.0
aF1362.0
aF901.0
aF590.0
aF322.0
aF181.0
aa(lp34
F1282.0
aF1282.0
aF1273.0
aF1273.0
aF1269.0
aF1121.0
aF975.0
aF898.0
aF753.0
aF492.0
aF288.0
aF169.0
aasS'init_infids'
p35
cnumpy.core.multiarray
_reconstruct
p36
(cnumpy
ndarray
p37
(I0
tp38
S'b'
p39
tp40
Rp41
(I1
(L12L
tp42
cnumpy
dtype
p43
(S'f8'
p44
I0
I1
tp45
Rp46
(I3
S'<'
p47
NNNI-1
I-1
I0
tp48
bI00
S'\xf1h\xe3\x88\xb5\xf8\xe4>,\x8b)\x87\xfd\xa5\xf3>%0!K\xa4h\x02?\xf5\x0fS\xacP?\x11?\xe7s\x0eI\xbf( ?|\xe6aM\x82G.?a\xe2=\xd0t^<?@\xe9\x0c2B\x94J?x\x1c9\x19\xf8\xe6X?\x8bb5\x9d\xc3Tg?#y\xaaJ\xef\xdbu?{\x14\xaeG\xe1z\x84?'
p49
tp50
bsS'mw_infids'
p51
g36
(g37
(I0
tp52
g39
tp53
Rp54
(I1
(L15L
tp55
g46
I00
S'\xf1h\xe3\x88\xb5\xf8\xe4>\xaa\x1b#\xfc\xaf,\xf1>\xa7\xb3O\x83N!\xfc>\x95\x98\xe4\xc9|\t\x07?\xf8\xcbR\x92\xba\xdd\x12?\x85O*\x18\x95\xe6\x1e?\xbb\x8b\x86\xb8XN)?,\xda\xc2\xe9k\xb94?}\x80\xc7\xb7\xdb\xf8@?C\xf3z\x80j\xccK?a\x8f3m\xf7\xc3V?)\xdeWz\xcb\xa4b?\xe9\x8d\xe3\xa3T\x89n?\xa6\x88\x15s\xfa\x01y?{\x14\xaeG\xe1z\x84?'
p56
tp57
bs.